; Function Attrs: mustprogress nounwind uwtable
define internal noundef zeroext i1 @_ZNSt17_Function_handlerIFbRN4llvm10AttributorEPKNS0_17AbstractAttributeEEZN12_GLOBAL__N_120AAKernelInfoFunction10initializeES2_EUlS2_S5_E0_E9_M_invokeERKSt9_Any_dataS2_OS5_(ptr nocapture noundef nonnull readonly align 8 dereferenceable(16) %0, ptr noundef nonnull align 8 dereferenceable(4296) %1, ptr nocapture noundef nonnull readonly align 8 dereferenceable(8) %2) #0 align 2 {
  %.val = load ptr, ptr %0, align 8
  %.val3 = load ptr, ptr %2, align 8
  %4 = getelementptr inbounds i8, ptr %.val, i64 217
  %5 = load i8, ptr %4, align 1
  %6 = trunc i8 %5 to i1
  %.not.i.i.i.i = icmp eq ptr %.val3, null
  %or.cond.i.i.i = or i1 %.not.i.i.i.i, %6
  br i1 %or.cond.i.i.i, label %_ZSt10__invoke_rIbRZN12_GLOBAL__N_120AAKernelInfoFunction10initializeERN4llvm10AttributorEEUlS4_PKNS2_17AbstractAttributeEE0_JS4_S7_EENSt9enable_ifIX16is_invocable_r_vIT_T0_DpT1_EESB_E4typeEOSC_DpOSD_.exit, label %7

7:                                                ; preds = %3
  tail call void @_ZN4llvm10Attributor16recordDependenceERKNS_17AbstractAttributeES3_NS_10DepClassTyE(ptr noundef nonnull align 8 dereferenceable(4296) %1, ptr noundef nonnull align 8 dereferenceable(80) %.val, ptr noundef nonnull align 8 dereferenceable(80) %.val3, i32 noundef 1) #26
  br label %_ZSt10__invoke_rIbRZN12_GLOBAL__N_120AAKernelInfoFunction10initializeERN4llvm10AttributorEEUlS4_PKNS2_17AbstractAttributeEE0_JS4_S7_EENSt9enable_ifIX16is_invocable_r_vIT_T0_DpT1_EESB_E4typeEOSC_DpOSD_.exit

_ZSt10__invoke_rIbRZN12_GLOBAL__N_120AAKernelInfoFunction10initializeERN4llvm10AttributorEEUlS4_PKNS2_17AbstractAttributeEE0_JS4_S7_EENSt9enable_ifIX16is_invocable_r_vIT_T0_DpT1_EESB_E4typeEOSC_DpOSD_.exit: ; preds = %3, %7
  %.0.i.i.i = xor i1 %6, true
  ret i1 %.0.i.i.i
}